target datalayout = "e-m:e-p270:32:32-p271:32:32-p272:64:64-i64:64-i128:128-f80:128-n8:16:32:64-S128"
target triple = "x86_64-pc-linux-gnu"

%struct.Fraig_ManStruct_t_ = type { ptr, ptr, ptr, ptr, ptr, ptr, ptr, ptr, ptr, i32, i32, i32, i32, i32, i32, i32, i32, i32, i32, i32, i32, i64, i32, i32, i32, i32, i32, ptr, ptr, ptr, ptr, ptr, i32, ptr, ptr, ptr, ptr, ptr, ptr, i32, ptr, ptr, ptr, ptr, i32, i32, i32, i32, i32, i32, i32, i32, i32, i32, i32, i32, i32, i32, i32, i32, i32, i32, i32, i64, i64, i64, i64, i64, i64, i64, i64, i64, i64, i64, i64 }
%struct.Fraig_NodeVecStruct_t_ = type { i32, i32, ptr }
%struct.Fraig_NodeStruct_t_ = type { i32, i32, i32, i32, i32, i32, i32, ptr, ptr, ptr, ptr, ptr, ptr, ptr, ptr, i32, i32, ptr, ptr, ptr, ptr, ptr, ptr, ptr }

@.str = private unnamed_addr constant [39 x i8] c"Primary input %d is a secondary node.\0A\00", align 1
@.str.1 = private unnamed_addr constant [36 x i8] c"Constant 1 %d is a secondary node.\0A\00", align 1
@.str.2 = private unnamed_addr constant [39 x i8] c"Internal node %d is a secondary node.\0A\00", align 1
@.str.3 = private unnamed_addr constant [63 x i8] c"Internal node %d has first fanin %d that is a secondary node.\0A\00", align 1
@.str.4 = private unnamed_addr constant [64 x i8] c"Internal node %d has second fanin %d that is a secondary node.\0A\00", align 1

; Function Attrs: nounwind uwtable
define ptr @Fraig_Dfs(ptr noundef %0, i32 noundef %1) #0 {
  %3 = alloca ptr, align 8
  %4 = alloca i32, align 4
  %5 = alloca ptr, align 8
  %6 = alloca i32, align 4
  store ptr %0, ptr %3, align 8
  store i32 %1, ptr %4, align 4
  %7 = load ptr, ptr %3, align 8
  %8 = getelementptr inbounds %struct.Fraig_ManStruct_t_, ptr %7, i32 0, i32 22
  %9 = load i32, ptr %8, align 8
  %10 = add nsw i32 %9, 1
  store i32 %10, ptr %8, align 8
  %11 = call ptr @Fraig_NodeVecAlloc(i32 noundef 100)
  store ptr %11, ptr %5, align 8
  store i32 0, ptr %6, align 4
  br label %12

12:                                               ; preds = %36, %2
  %13 = load i32, ptr %6, align 4
  %14 = load ptr, ptr %3, align 8
  %15 = getelementptr inbounds %struct.Fraig_ManStruct_t_, ptr %14, i32 0, i32 2
  %16 = load ptr, ptr %15, align 8
  %17 = getelementptr inbounds %struct.Fraig_NodeVecStruct_t_, ptr %16, i32 0, i32 1
  %18 = load i32, ptr %17, align 4
  %19 = icmp slt i32 %13, %18
  br i1 %19, label %20, label %39

20:                                               ; preds = %12
  %21 = load ptr, ptr %3, align 8
  %22 = load ptr, ptr %3, align 8
  %23 = getelementptr inbounds %struct.Fraig_ManStruct_t_, ptr %22, i32 0, i32 2
  %24 = load ptr, ptr %23, align 8
  %25 = getelementptr inbounds %struct.Fraig_NodeVecStruct_t_, ptr %24, i32 0, i32 2
  %26 = load ptr, ptr %25, align 8
  %27 = load i32, ptr %6, align 4
  %28 = sext i32 %27 to i64
  %29 = getelementptr inbounds ptr, ptr %26, i64 %28
  %30 = load ptr, ptr %29, align 8
  %31 = ptrtoint ptr %30 to i64
  %32 = and i64 %31, -2
  %33 = inttoptr i64 %32 to ptr
  %34 = load ptr, ptr %5, align 8
  %35 = load i32, ptr %4, align 4
  call void @Fraig_Dfs_rec(ptr noundef %21, ptr noundef %33, ptr noundef %34, i32 noundef %35)
  br label %36

36:                                               ; preds = %20
  %37 = load i32, ptr %6, align 4
  %38 = add nsw i32 %37, 1
  store i32 %38, ptr %6, align 4
  br label %12, !llvm.loop !4

39:                                               ; preds = %12
  %40 = load ptr, ptr %5, align 8
  ret ptr %40
}

; Function Attrs: nounwind uwtable
define i32 @Fraig_ManCheckConsistency(ptr noundef %0) #0 {
  %2 = alloca ptr, align 8
  %3 = alloca ptr, align 8
  %4 = alloca ptr, align 8
  %5 = alloca i32, align 4
  store ptr %0, ptr %2, align 8
  %6 = load ptr, ptr %2, align 8
  %7 = call ptr @Fraig_Dfs(ptr noundef %6, i32 noundef 0)
  store ptr %7, ptr %4, align 8
  store i32 0, ptr %5, align 4
  br label %8

8:                                                ; preds = %110, %1
  %9 = load i32, ptr %5, align 4
  %10 = load ptr, ptr %4, align 8
  %11 = getelementptr inbounds %struct.Fraig_NodeVecStruct_t_, ptr %10, i32 0, i32 1
  %12 = load i32, ptr %11, align 4
  %13 = icmp slt i32 %9, %12
  br i1 %13, label %14, label %113

14:                                               ; preds = %8
  %15 = load ptr, ptr %4, align 8
  %16 = getelementptr inbounds %struct.Fraig_NodeVecStruct_t_, ptr %15, i32 0, i32 2
  %17 = load ptr, ptr %16, align 8
  %18 = load i32, ptr %5, align 4
  %19 = sext i32 %18 to i64
  %20 = getelementptr inbounds ptr, ptr %17, i64 %19
  %21 = load ptr, ptr %20, align 8
  store ptr %21, ptr %3, align 8
  %22 = load ptr, ptr %3, align 8
  %23 = call i32 @Fraig_NodeIsVar(ptr noundef %22)
  %24 = icmp ne i32 %23, 0
  br i1 %24, label %25, label %36

25:                                               ; preds = %14
  %26 = load ptr, ptr %3, align 8
  %27 = getelementptr inbounds %struct.Fraig_NodeStruct_t_, ptr %26, i32 0, i32 14
  %28 = load ptr, ptr %27, align 8
  %29 = icmp ne ptr %28, null
  br i1 %29, label %30, label %35

30:                                               ; preds = %25
  %31 = load ptr, ptr %3, align 8
  %32 = getelementptr inbounds %struct.Fraig_NodeStruct_t_, ptr %31, i32 0, i32 0
  %33 = load i32, ptr %32, align 8
  %34 = call i32 (ptr, ...) @printf(ptr noundef @.str, i32 noundef %33)
  br label %35

35:                                               ; preds = %30, %25
  br label %109

36:                                               ; preds = %14
  %37 = load ptr, ptr %3, align 8
  %38 = call i32 @Fraig_NodeIsConst(ptr noundef %37)
  %39 = icmp ne i32 %38, 0
  br i1 %39, label %40, label %51

40:                                               ; preds = %36
  %41 = load ptr, ptr %3, align 8
  %42 = getelementptr inbounds %struct.Fraig_NodeStruct_t_, ptr %41, i32 0, i32 14
  %43 = load ptr, ptr %42, align 8
  %44 = icmp ne ptr %43, null
  br i1 %44, label %45, label %50

45:                                               ; preds = %40
  %46 = load ptr, ptr %3, align 8
  %47 = getelementptr inbounds %struct.Fraig_NodeStruct_t_, ptr %46, i32 0, i32 0
  %48 = load i32, ptr %47, align 8
  %49 = call i32 (ptr, ...) @printf(ptr noundef @.str.1, i32 noundef %48)
  br label %50

50:                                               ; preds = %45, %40
  br label %108

51:                                               ; preds = %36
  %52 = load ptr, ptr %3, align 8
  %53 = getelementptr inbounds %struct.Fraig_NodeStruct_t_, ptr %52, i32 0, i32 14
  %54 = load ptr, ptr %53, align 8
  %55 = icmp ne ptr %54, null
  br i1 %55, label %56, label %61

56:                                               ; preds = %51
  %57 = load ptr, ptr %3, align 8
  %58 = getelementptr inbounds %struct.Fraig_NodeStruct_t_, ptr %57, i32 0, i32 0
  %59 = load i32, ptr %58, align 8
  %60 = call i32 (ptr, ...) @printf(ptr noundef @.str.2, i32 noundef %59)
  br label %61

61:                                               ; preds = %56, %51
  %62 = load ptr, ptr %3, align 8
  %63 = getelementptr inbounds %struct.Fraig_NodeStruct_t_, ptr %62, i32 0, i32 7
  %64 = load ptr, ptr %63, align 8
  %65 = ptrtoint ptr %64 to i64
  %66 = and i64 %65, -2
  %67 = inttoptr i64 %66 to ptr
  %68 = getelementptr inbounds %struct.Fraig_NodeStruct_t_, ptr %67, i32 0, i32 14
  %69 = load ptr, ptr %68, align 8
  %70 = icmp ne ptr %69, null
  br i1 %70, label %71, label %84

71:                                               ; preds = %61
  %72 = load ptr, ptr %3, align 8
  %73 = getelementptr inbounds %struct.Fraig_NodeStruct_t_, ptr %72, i32 0, i32 0
  %74 = load i32, ptr %73, align 8
  %75 = load ptr, ptr %3, align 8
  %76 = getelementptr inbounds %struct.Fraig_NodeStruct_t_, ptr %75, i32 0, i32 7
  %77 = load ptr, ptr %76, align 8
  %78 = ptrtoint ptr %77 to i64
  %79 = and i64 %78, -2
  %80 = inttoptr i64 %79 to ptr
  %81 = getelementptr inbounds %struct.Fraig_NodeStruct_t_, ptr %80, i32 0, i32 0
  %82 = load i32, ptr %81, align 8
  %83 = call i32 (ptr, ...) @printf(ptr noundef @.str.3, i32 noundef %74, i32 noundef %82)
  br label %84

84:                                               ; preds = %71, %61
  %85 = load ptr, ptr %3, align 8
  %86 = getelementptr inbounds %struct.Fraig_NodeStruct_t_, ptr %85, i32 0, i32 8
  %87 = load ptr, ptr %86, align 8
  %88 = ptrtoint ptr %87 to i64
  %89 = and i64 %88, -2
  %90 = inttoptr i64 %89 to ptr
  %91 = getelementptr inbounds %struct.Fraig_NodeStruct_t_, ptr %90, i32 0, i32 14
  %92 = load ptr, ptr %91, align 8
  %93 = icmp ne ptr %92, null
  br i1 %93, label %94, label %107

94:                                               ; preds = %84
  %95 = load ptr, ptr %3, align 8
  %96 = getelementptr inbounds %struct.Fraig_NodeStruct_t_, ptr %95, i32 0, i32 0
  %97 = load i32, ptr %96, align 8
  %98 = load ptr, ptr %3, align 8
  %99 = getelementptr inbounds %struct.Fraig_NodeStruct_t_, ptr %98, i32 0, i32 8
  %100 = load ptr, ptr %99, align 8
  %101 = ptrtoint ptr %100 to i64
  %102 = and i64 %101, -2
  %103 = inttoptr i64 %102 to ptr
  %104 = getelementptr inbounds %struct.Fraig_NodeStruct_t_, ptr %103, i32 0, i32 0
  %105 = load i32, ptr %104, align 8
  %106 = call i32 (ptr, ...) @printf(ptr noundef @.str.4, i32 noundef %97, i32 noundef %105)
  br label %107

107:                                              ; preds = %94, %84
  br label %108

108:                                              ; preds = %107, %50
  br label %109

109:                                              ; preds = %108, %35
  br label %110

110:                                              ; preds = %109
  %111 = load i32, ptr %5, align 4
  %112 = add nsw i32 %111, 1
  store i32 %112, ptr %5, align 4
  br label %8, !llvm.loop !10

113:                                              ; preds = %8
  %114 = load ptr, ptr %4, align 8
  call void @Fraig_NodeVecFree(ptr noundef %114)
  ret i32 1
}