; Function Attrs: nounwind uwtable
define noundef i32 @Fraig_ManCheckConsistency(ptr noundef captures(none) %0) local_unnamed_addr #0 {
  %2 = getelementptr inbounds nuw i8, ptr %0, i64 128
  %3 = load i32, ptr %2, align 8
  %4 = add nsw i32 %3, 1
  store i32 %4, ptr %2, align 8
  %5 = tail call ptr @Fraig_NodeVecAlloc(i32 noundef 100) #15
  %6 = getelementptr inbounds nuw i8, ptr %0, i64 16
  %7 = load ptr, ptr %6, align 8
  %8 = getelementptr inbounds nuw i8, ptr %7, i64 4
  %9 = load i32, ptr %8, align 4
  %10 = icmp sgt i32 %9, 0
  br i1 %10, label %.lr.ph.i, label %Fraig_Dfs.exit

.lr.ph.i:                                         ; preds = %1, %.lr.ph.i
  %indvars.iv.i = phi i64 [ %indvars.iv.next.i, %.lr.ph.i ], [ 0, %1 ]
  %11 = phi ptr [ %19, %.lr.ph.i ], [ %7, %1 ]
  %12 = getelementptr inbounds nuw i8, ptr %11, i64 8
  %13 = load ptr, ptr %12, align 8
  %14 = getelementptr inbounds nuw ptr, ptr %13, i64 %indvars.iv.i
  %15 = load ptr, ptr %14, align 8
  %16 = ptrtoint ptr %15 to i64
  %17 = and i64 %16, -2
  %18 = inttoptr i64 %17 to ptr
  %.val.i = load i32, ptr %2, align 8
  tail call fastcc void @Fraig_Dfs_rec(i32 %.val.i, ptr noundef %18, ptr noundef %5, i32 noundef 0)
  %indvars.iv.next.i = add nuw nsw i64 %indvars.iv.i, 1
  %19 = load ptr, ptr %6, align 8
  %20 = getelementptr inbounds nuw i8, ptr %19, i64 4
  %21 = load i32, ptr %20, align 4
  %22 = sext i32 %21 to i64
  %23 = icmp slt i64 %indvars.iv.next.i, %22
  br i1 %23, label %.lr.ph.i, label %Fraig_Dfs.exit, !llvm.loop !4

Fraig_Dfs.exit:                                   ; preds = %.lr.ph.i, %1
  %24 = getelementptr inbounds nuw i8, ptr %5, i64 4
  %25 = load i32, ptr %24, align 4
  %26 = icmp sgt i32 %25, 0
  br i1 %26, label %.lr.ph, label %._crit_edge

.lr.ph:                                           ; preds = %Fraig_Dfs.exit
  %27 = getelementptr inbounds nuw i8, ptr %5, i64 8
  br label %28

28:                                               ; preds = %.lr.ph, %75
  %indvars.iv = phi i64 [ 0, %.lr.ph ], [ %indvars.iv.next, %75 ]
  %29 = load ptr, ptr %27, align 8
  %30 = getelementptr inbounds nuw ptr, ptr %29, i64 %indvars.iv
  %31 = load ptr, ptr %30, align 8
  %32 = tail call i32 @Fraig_NodeIsVar(ptr noundef %31) #15
  %.not = icmp eq i32 %32, 0
  br i1 %.not, label %39, label %33

33:                                               ; preds = %28
  %34 = getelementptr inbounds nuw i8, ptr %31, i64 88
  %35 = load ptr, ptr %34, align 8
  %.not25 = icmp eq ptr %35, null
  br i1 %.not25, label %75, label %36

36:                                               ; preds = %33
  %37 = load i32, ptr %31, align 8
  %38 = tail call i32 (ptr, ...) @printf(ptr noundef nonnull dereferenceable(1) @.str, i32 noundef %37)
  br label %75

39:                                               ; preds = %28
  %40 = tail call i32 @Fraig_NodeIsConst(ptr noundef %31) #15
  %.not20 = icmp eq i32 %40, 0
  %41 = getelementptr inbounds nuw i8, ptr %31, i64 88
  %42 = load ptr, ptr %41, align 8
  %.not21 = icmp eq ptr %42, null
  br i1 %.not20, label %47, label %43

43:                                               ; preds = %39
  br i1 %.not21, label %75, label %44

44:                                               ; preds = %43
  %45 = load i32, ptr %31, align 8
  %46 = tail call i32 (ptr, ...) @printf(ptr noundef nonnull dereferenceable(1) @.str.1, i32 noundef %45)
  br label %75

47:                                               ; preds = %39
  br i1 %.not21, label %51, label %48

48:                                               ; preds = %47
  %49 = load i32, ptr %31, align 8
  %50 = tail call i32 (ptr, ...) @printf(ptr noundef nonnull dereferenceable(1) @.str.2, i32 noundef %49)
  br label %51

51:                                               ; preds = %48, %47
  %52 = getelementptr inbounds nuw i8, ptr %31, i64 32
  %53 = load ptr, ptr %52, align 8
  %54 = ptrtoint ptr %53 to i64
  %55 = and i64 %54, -2
  %56 = inttoptr i64 %55 to ptr
  %57 = getelementptr inbounds nuw i8, ptr %56, i64 88
  %58 = load ptr, ptr %57, align 8
  %.not22 = icmp eq ptr %58, null
  br i1 %.not22, label %63, label %59

59:                                               ; preds = %51
  %60 = load i32, ptr %31, align 8
  %61 = load i32, ptr %56, align 8
  %62 = tail call i32 (ptr, ...) @printf(ptr noundef nonnull dereferenceable(1) @.str.3, i32 noundef %60, i32 noundef %61)
  br label %63

63:                                               ; preds = %59, %51
  %64 = getelementptr inbounds nuw i8, ptr %31, i64 40
  %65 = load ptr, ptr %64, align 8
  %66 = ptrtoint ptr %65 to i64
  %67 = and i64 %66, -2
  %68 = inttoptr i64 %67 to ptr
  %69 = getelementptr inbounds nuw i8, ptr %68, i64 88
  %70 = load ptr, ptr %69, align 8
  %.not23 = icmp eq ptr %70, null
  br i1 %.not23, label %75, label %71

71:                                               ; preds = %63
  %72 = load i32, ptr %31, align 8
  %73 = load i32, ptr %68, align 8
  %74 = tail call i32 (ptr, ...) @printf(ptr noundef nonnull dereferenceable(1) @.str.4, i32 noundef %72, i32 noundef %73)
  br label %75

75:                                               ; preds = %36, %33, %63, %71, %43, %44
  %indvars.iv.next = add nuw nsw i64 %indvars.iv, 1
  %76 = load i32, ptr %24, align 4
  %77 = sext i32 %76 to i64
  %78 = icmp slt i64 %indvars.iv.next, %77
  br i1 %78, label %28, label %._crit_edge, !llvm.loop !10

._crit_edge:                                      ; preds = %75, %Fraig_Dfs.exit
  tail call void @Fraig_NodeVecFree(ptr noundef nonnull %5) #15
  ret i32 1
}